; Function Attrs: mustprogress nounwind uwtable
define internal fastcc void @_ZL19call_postVMInitHookP10JavaThread(ptr noundef %0) unnamed_addr #0 {
  %2 = alloca %class.JavaValue, align 8
  %3 = load ptr, ptr getelementptr inbounds (i8, ptr @_ZN6Symbol11_vm_symbolsE, i64 656), align 8
  %4 = tail call noundef ptr @_ZN16SystemDictionary15resolve_or_nullEP6Symbol6HandleS2_P10JavaThread(ptr noundef %3, ptr null, ptr null, ptr noundef %0) #15
  %.not = icmp eq ptr %4, null
  br i1 %.not, label %8, label %5

5:                                                ; preds = %1
  store i8 14, ptr %2, align 8
  %6 = load ptr, ptr getelementptr inbounds (i8, ptr @_ZN6Symbol11_vm_symbolsE, i64 3136), align 8
  %7 = load ptr, ptr getelementptr inbounds (i8, ptr @_ZN6Symbol11_vm_symbolsE, i64 6752), align 8
  call void @_ZN9JavaCalls11call_staticEP9JavaValueP5KlassP6SymbolS5_P10JavaThread(ptr noundef nonnull %2, ptr noundef nonnull %4, ptr noundef %6, ptr noundef %7, ptr noundef %0) #15
  br label %8

8:                                                ; preds = %5, %1
  ret void
}